; Function Attrs: nounwind uwtable
define void @PHP_CRC32BUpdate(ptr noundef %0, ptr noundef %1, i64 noundef %2) #1 {
  %4 = tail call i64 @crc32_x86_simd_update(i32 noundef 1, ptr noundef %0, ptr noundef %1, i64 noundef %2) #4
  %5 = icmp ult i64 %4, %2
  br i1 %5, label %.lr.ph, label %._crit_edge

.lr.ph:                                           ; preds = %3
  %.promoted = load i32, ptr %0, align 4
  br label %6

6:                                                ; preds = %.lr.ph, %6
  %7 = phi i32 [ %.promoted, %.lr.ph ], [ %14, %6 ]
  %.011 = phi i64 [ %4, %.lr.ph ], [ %15, %6 ]
  %8 = lshr i32 %7, 8
  %9 = getelementptr inbounds i8, ptr %1, i64 %.011
  %10 = load i8, ptr %9, align 1
  %.tr = trunc i32 %7 to i8
  %.narrow = xor i8 %10, %.tr
  %11 = zext i8 %.narrow to i64
  %12 = getelementptr inbounds [256 x i32], ptr @crc32b_table, i64 0, i64 %11
  %13 = load i32, ptr %12, align 4
  %14 = xor i32 %13, %8
  store i32 %14, ptr %0, align 4
  %15 = add nuw i64 %.011, 1
  %exitcond.not = icmp eq i64 %15, %2
  br i1 %exitcond.not, label %._crit_edge, label %6

._crit_edge:                                      ; preds = %6, %3
  ret void
}